target datalayout = "e-m:e-p270:32:32-p271:32:32-p272:64:64-i64:64-i128:128-f80:128-n8:16:32:64-S128"
target triple = "x86_64-pc-linux-gnu"

%struct.cpool = type { %struct.Curl_hash, i64, i64, i64, %struct.curltime, %struct.Curl_llist, ptr, ptr, ptr, ptr, i8 }
%struct.Curl_hash = type { ptr, ptr, ptr, ptr, i64, i64 }
%struct.curltime = type { i64, i32 }
%struct.Curl_llist = type { ptr, ptr, ptr, i64 }
%struct.easy_pollset = type { [5 x i32], i32, [5 x i8] }

; Function Attrs: nounwind uwtable
define internal i32 @cpool_add_pollfds(ptr noundef %0, ptr noundef %1) #0 {
  %3 = alloca i32, align 4
  %4 = alloca ptr, align 8
  %5 = alloca ptr, align 8
  %6 = alloca i32, align 4
  %7 = alloca ptr, align 8
  %8 = alloca %struct.easy_pollset, align 4
  %9 = alloca ptr, align 8
  %10 = alloca i32, align 4
  store ptr %0, ptr %4, align 8, !tbaa !3
  store ptr %1, ptr %5, align 8, !tbaa !151
  call void @llvm.lifetime.start.p0(i64 4, ptr %6) #7
  store i32 0, ptr %6, align 4, !tbaa !89
  %11 = load ptr, ptr %4, align 8, !tbaa !3
  %12 = getelementptr inbounds nuw %struct.cpool, ptr %11, i32 0, i32 5
  %13 = call ptr @Curl_llist_head(ptr noundef %12)
  %14 = icmp ne ptr %13, null
  br i1 %14, label %15, label %49

15:                                               ; preds = %2
  call void @llvm.lifetime.start.p0(i64 8, ptr %7) #7
  call void @llvm.lifetime.start.p0(i64 32, ptr %8) #7
  call void @llvm.lifetime.start.p0(i64 8, ptr %9) #7
  %16 = load ptr, ptr %4, align 8, !tbaa !3
  %17 = getelementptr inbounds nuw %struct.cpool, ptr %16, i32 0, i32 5
  %18 = call ptr @Curl_llist_head(ptr noundef %17)
  store ptr %18, ptr %7, align 8, !tbaa !125
  br label %19

19:                                               ; preds = %42, %15
  %20 = load ptr, ptr %7, align 8, !tbaa !125
  %21 = icmp ne ptr %20, null
  br i1 %21, label %22, label %45

22:                                               ; preds = %19
  %23 = load ptr, ptr %7, align 8, !tbaa !125
  %24 = call ptr @Curl_node_elem(ptr noundef %23)
  store ptr %24, ptr %9, align 8, !tbaa !95
  call void @llvm.memset.p0.i64(ptr align 4 %8, i8 0, i64 32, i1 false)
  %25 = load ptr, ptr %4, align 8, !tbaa !3
  %26 = getelementptr inbounds nuw %struct.cpool, ptr %25, i32 0, i32 6
  %27 = load ptr, ptr %26, align 8, !tbaa !15
  %28 = load ptr, ptr %9, align 8, !tbaa !95
  call void @Curl_attach_connection(ptr noundef %27, ptr noundef %28)
  %29 = load ptr, ptr %4, align 8, !tbaa !3
  %30 = getelementptr inbounds nuw %struct.cpool, ptr %29, i32 0, i32 6
  %31 = load ptr, ptr %30, align 8, !tbaa !15
  call void @Curl_conn_adjust_pollset(ptr noundef %31, ptr noundef %8)
  %32 = load ptr, ptr %4, align 8, !tbaa !3
  %33 = getelementptr inbounds nuw %struct.cpool, ptr %32, i32 0, i32 6
  %34 = load ptr, ptr %33, align 8, !tbaa !15
  call void @Curl_detach_connection(ptr noundef %34)
  %35 = load ptr, ptr %5, align 8, !tbaa !151
  %36 = call i32 @Curl_pollfds_add_ps(ptr noundef %35, ptr noundef %8)
  store i32 %36, ptr %6, align 4, !tbaa !89
  %37 = load i32, ptr %6, align 4, !tbaa !89
  %38 = icmp ne i32 %37, 0
  br i1 %38, label %39, label %41

39:                                               ; preds = %22
  %40 = load ptr, ptr %5, align 8, !tbaa !151
  call void @Curl_pollfds_cleanup(ptr noundef %40)
  store i32 5, ptr %10, align 4
  br label %46

41:                                               ; preds = %22
  br label %42

42:                                               ; preds = %41
  %43 = load ptr, ptr %7, align 8, !tbaa !125
  %44 = call ptr @Curl_node_next(ptr noundef %43)
  store ptr %44, ptr %7, align 8, !tbaa !125
  br label %19, !llvm.loop !153

45:                                               ; preds = %19
  store i32 0, ptr %10, align 4
  br label %46

46:                                               ; preds = %39, %45
  call void @llvm.lifetime.end.p0(i64 8, ptr %9) #7
  call void @llvm.lifetime.end.p0(i64 32, ptr %8) #7
  call void @llvm.lifetime.end.p0(i64 8, ptr %7) #7
  %47 = load i32, ptr %10, align 4
  switch i32 %47, label %52 [
    i32 0, label %48
    i32 5, label %50
  ]

48:                                               ; preds = %46
  br label %49

49:                                               ; preds = %48, %2
  br label %50

50:                                               ; preds = %49, %46
  %51 = load i32, ptr %6, align 4, !tbaa !89
  store i32 %51, ptr %3, align 4
  store i32 1, ptr %10, align 4
  br label %52

52:                                               ; preds = %50, %46
  call void @llvm.lifetime.end.p0(i64 4, ptr %6) #7
  %53 = load i32, ptr %3, align 4
  ret i32 %53
}