; Function Attrs: nounwind uwtable
define internal fastcc i32 @cpool_add_pollfds(ptr noundef %0, ptr noundef %1) unnamed_addr #0 {
  %3 = alloca %struct.easy_pollset, align 4
  %4 = getelementptr inbounds nuw i8, ptr %0, i64 88
  %5 = tail call ptr @Curl_llist_head(ptr noundef nonnull %4) #8
  %.not = icmp eq ptr %5, null
  br i1 %.not, label %18, label %6

6:                                                ; preds = %2
  call void @llvm.lifetime.start.p0(i64 32, ptr nonnull %3) #8
  %7 = tail call ptr @Curl_llist_head(ptr noundef nonnull %4) #8
  %.not1921 = icmp eq ptr %7, null
  br i1 %.not1921, label %.loopexit, label %.lr.ph

.lr.ph:                                           ; preds = %6
  %8 = getelementptr inbounds nuw i8, ptr %0, i64 120
  br label %9

9:                                                ; preds = %.lr.ph, %16
  %.01522 = phi ptr [ %7, %.lr.ph ], [ %17, %16 ]
  %10 = call ptr @Curl_node_elem(ptr noundef nonnull %.01522) #8
  call void @llvm.memset.p0.i64(ptr noundef nonnull align 4 dereferenceable(32) %3, i8 0, i64 32, i1 false)
  %11 = load ptr, ptr %8, align 8, !tbaa !3
  call void @Curl_attach_connection(ptr noundef %11, ptr noundef %10) #8
  %12 = load ptr, ptr %8, align 8, !tbaa !3
  call void @Curl_conn_adjust_pollset(ptr noundef %12, ptr noundef nonnull %3) #8
  %13 = load ptr, ptr %8, align 8, !tbaa !3
  call void @Curl_detach_connection(ptr noundef %13) #8
  %14 = call i32 @Curl_pollfds_add_ps(ptr noundef %1, ptr noundef nonnull %3) #8
  %.not20 = icmp eq i32 %14, 0
  br i1 %.not20, label %16, label %15

15:                                               ; preds = %9
  call void @Curl_pollfds_cleanup(ptr noundef %1) #8
  br label %.loopexit

16:                                               ; preds = %9
  %17 = call ptr @Curl_node_next(ptr noundef nonnull %.01522) #8
  %.not19 = icmp eq ptr %17, null
  br i1 %.not19, label %.loopexit, label %9, !llvm.loop !151

.loopexit:                                        ; preds = %16, %6, %15
  %.1 = phi i32 [ %14, %15 ], [ 0, %6 ], [ 0, %16 ]
  call void @llvm.lifetime.end.p0(i64 32, ptr nonnull %3) #8
  br label %18

18:                                               ; preds = %.loopexit, %2
  %.014 = phi i32 [ %.1, %.loopexit ], [ 0, %2 ]
  ret i32 %.014
}